target datalayout = "e-m:e-p270:32:32-p271:32:32-p272:64:64-i64:64-i128:128-f80:128-n8:16:32:64-S128"
target triple = "x86_64-pc-linux-gnu"

%struct.IDAMemRec = type { double, ptr, ptr, i32, double, double, ptr, i32, ptr, ptr, i32, ptr, ptr, i32, i32, double, double, ptr, i32, i32, i32, ptr, ptr, i32, ptr, ptr, ptr, i32, double, i32, i32, double, ptr, ptr, i32, ptr, ptr, i32, i32, i32, double, ptr, ptr, [6 x ptr], [6 x double], [6 x double], [6 x double], [6 x double], [6 x double], ptr, ptr, ptr, ptr, ptr, ptr, ptr, ptr, ptr, ptr, ptr, ptr, ptr, ptr, ptr, [6 x ptr], ptr, ptr, ptr, ptr, [6 x ptr], ptr, ptr, ptr, ptr, ptr, ptr, ptr, ptr, ptr, ptr, ptr, ptr, ptr, ptr, [6 x ptr], ptr, ptr, ptr, ptr, ptr, double, ptr, ptr, i32, i32, i32, i32, i32, i32, i32, double, double, double, i32, double, i32, i32, i32, i32, double, double, double, double, double, double, double, double, double, double, double, double, double, double, i32, i32, i32, i32, i32, i64, double, i32, i64, i64, i64, i64, i64, i64, i64, i64, i64, i64, i64, i64, i64, i64, i64, i64, i64, i64, i64, i64, i64, i64, i64, i64, ptr, ptr, ptr, i32, i32, i32, i32, i32, i32, i32, i32, i32, i32, i32, i32, i32, ptr, ptr, ptr, ptr, ptr, ptr, i32, i32, i32, i32, i32, i32, double, double, double, ptr, i32, ptr, ptr, double, double, double, ptr, ptr, ptr, double, double, i32, i32, i64, ptr, i32, i32, ptr, i32 }
%struct.IDASpilsMemRec = type { i32, i32, double, i32, i32, double, double, double, i64, i64, i64, i64, i64, i64, i64, i64, i64, i64, i64, i64, ptr, ptr, ptr, ptr, ptr, ptr, ptr, i64, ptr, ptr, ptr, ptr, i32, ptr, ptr }

; Function Attrs: nounwind uwtable
define i32 @IDASpilsPSolve(ptr noundef %0, ptr noundef %1, ptr noundef %2, i32 noundef %3) #0 {
  %5 = alloca ptr, align 8
  %6 = alloca ptr, align 8
  %7 = alloca ptr, align 8
  %8 = alloca i32, align 4
  %9 = alloca ptr, align 8
  %10 = alloca ptr, align 8
  %11 = alloca i32, align 4
  store ptr %0, ptr %5, align 8, !tbaa !3
  store ptr %1, ptr %6, align 8, !tbaa !49
  store ptr %2, ptr %7, align 8, !tbaa !49
  store i32 %3, ptr %8, align 4, !tbaa !7
  call void @llvm.lifetime.start.p0(i64 8, ptr %9) #5
  call void @llvm.lifetime.start.p0(i64 8, ptr %10) #5
  call void @llvm.lifetime.start.p0(i64 4, ptr %11) #5
  %12 = load ptr, ptr %5, align 8, !tbaa !3
  store ptr %12, ptr %9, align 8, !tbaa !9
  %13 = load ptr, ptr %9, align 8, !tbaa !9
  %14 = getelementptr inbounds nuw %struct.IDAMemRec, ptr %13, i32 0, i32 176
  %15 = load ptr, ptr %14, align 8, !tbaa !11
  store ptr %15, ptr %10, align 8, !tbaa !21
  %16 = load ptr, ptr %10, align 8, !tbaa !21
  %17 = getelementptr inbounds nuw %struct.IDASpilsMemRec, ptr %16, i32 0, i32 29
  %18 = load ptr, ptr %17, align 8, !tbaa !32
  %19 = load ptr, ptr %9, align 8, !tbaa !9
  %20 = getelementptr inbounds nuw %struct.IDAMemRec, ptr %19, i32 0, i32 112
  %21 = load double, ptr %20, align 8, !tbaa !50
  %22 = load ptr, ptr %10, align 8, !tbaa !21
  %23 = getelementptr inbounds nuw %struct.IDASpilsMemRec, ptr %22, i32 0, i32 23
  %24 = load ptr, ptr %23, align 8, !tbaa !51
  %25 = load ptr, ptr %10, align 8, !tbaa !21
  %26 = getelementptr inbounds nuw %struct.IDASpilsMemRec, ptr %25, i32 0, i32 24
  %27 = load ptr, ptr %26, align 8, !tbaa !52
  %28 = load ptr, ptr %10, align 8, !tbaa !21
  %29 = getelementptr inbounds nuw %struct.IDASpilsMemRec, ptr %28, i32 0, i32 25
  %30 = load ptr, ptr %29, align 8, !tbaa !53
  %31 = load ptr, ptr %6, align 8, !tbaa !49
  %32 = load ptr, ptr %7, align 8, !tbaa !49
  %33 = load ptr, ptr %9, align 8, !tbaa !9
  %34 = getelementptr inbounds nuw %struct.IDAMemRec, ptr %33, i32 0, i32 114
  %35 = load double, ptr %34, align 8, !tbaa !54
  %36 = load ptr, ptr %10, align 8, !tbaa !21
  %37 = getelementptr inbounds nuw %struct.IDASpilsMemRec, ptr %36, i32 0, i32 7
  %38 = load double, ptr %37, align 8, !tbaa !58
  %39 = load ptr, ptr %10, align 8, !tbaa !21
  %40 = getelementptr inbounds nuw %struct.IDASpilsMemRec, ptr %39, i32 0, i32 31
  %41 = load ptr, ptr %40, align 8, !tbaa !59
  %42 = load ptr, ptr %10, align 8, !tbaa !21
  %43 = getelementptr inbounds nuw %struct.IDASpilsMemRec, ptr %42, i32 0, i32 20
  %44 = load ptr, ptr %43, align 8, !tbaa !56
  %45 = call i32 %18(double noundef %21, ptr noundef %24, ptr noundef %27, ptr noundef %30, ptr noundef %31, ptr noundef %32, double noundef %35, double noundef %38, ptr noundef %41, ptr noundef %44)
  store i32 %45, ptr %11, align 4, !tbaa !7
  %46 = load i32, ptr %11, align 4, !tbaa !7
  call void @llvm.lifetime.end.p0(i64 4, ptr %11) #5
  call void @llvm.lifetime.end.p0(i64 8, ptr %10) #5
  call void @llvm.lifetime.end.p0(i64 8, ptr %9) #5
  ret i32 %46
}