; Function Attrs: nounwind uwtable
define i32 @IDASpilsPSolve(ptr noundef readonly captures(none) %0, ptr noundef %1, ptr noundef %2, i32 noundef %3) local_unnamed_addr #0 {
  %5 = getelementptr inbounds nuw i8, ptr %0, i64 1632
  %6 = load ptr, ptr %5, align 8, !tbaa !3
  %7 = getelementptr inbounds nuw i8, ptr %6, i64 216
  %8 = load ptr, ptr %7, align 8, !tbaa !25
  %9 = getelementptr inbounds nuw i8, ptr %0, i64 1184
  %10 = load double, ptr %9, align 8, !tbaa !38
  %11 = getelementptr inbounds nuw i8, ptr %6, i64 168
  %12 = load ptr, ptr %11, align 8, !tbaa !39
  %13 = getelementptr inbounds nuw i8, ptr %6, i64 176
  %14 = load ptr, ptr %13, align 8, !tbaa !40
  %15 = getelementptr inbounds nuw i8, ptr %6, i64 184
  %16 = load ptr, ptr %15, align 8, !tbaa !41
  %17 = getelementptr inbounds nuw i8, ptr %0, i64 1200
  %18 = load double, ptr %17, align 8, !tbaa !42
  %19 = getelementptr inbounds nuw i8, ptr %6, i64 40
  %20 = load double, ptr %19, align 8, !tbaa !46
  %21 = getelementptr inbounds nuw i8, ptr %6, i64 232
  %22 = load ptr, ptr %21, align 8, !tbaa !47
  %23 = getelementptr inbounds nuw i8, ptr %6, i64 144
  %24 = load ptr, ptr %23, align 8, !tbaa !44
  %25 = tail call i32 %8(double noundef %10, ptr noundef %12, ptr noundef %14, ptr noundef %16, ptr noundef %1, ptr noundef %2, double noundef %18, double noundef %20, ptr noundef %22, ptr noundef %24) #5
  ret i32 %25
}